target datalayout = "e-m:e-p270:32:32-p271:32:32-p272:64:64-i64:64-i128:128-f80:128-n8:16:32:64-S128"
target triple = "x86_64-unknown-linux-gnu"

%struct.QTailQLink = type { ptr, ptr }
%struct.UHCIAsync = type { %struct.USBPacket, [64 x i8], ptr, ptr, %union.anon.20, i32, i8 }
%struct.USBPacket = type { i32, i64, ptr, i32, %struct.QEMUIOVector, i64, i8, i8, i32, i32, i32, ptr, %union.anon.18, %union.anon.19 }
%struct.QEMUIOVector = type { ptr, i32, %union.anon.15 }
%union.anon.15 = type { %struct.anon.16 }
%struct.anon.16 = type { i32, %struct.iovec }
%struct.iovec = type { ptr, i64 }
%union.anon.18 = type { %struct.QTailQLink }
%union.anon.19 = type { %struct.QTailQLink }
%union.anon.20 = type { %struct.QTailQLink }
%struct.UHCIQueue = type { i32, i32, ptr, ptr, %union.anon.13, %union.anon.14, i8 }
%union.anon.13 = type { %struct.QTailQLink }
%union.anon.14 = type { %struct.QTailQLink }
%struct.timeval = type { i64, i64 }

@trace_events_enabled_count = external global i32, align 4
@_TRACE_USB_UHCI_PACKET_UNLINK_ASYNC_DSTATE = external global i16, align 2
@message_with_timestamp = external global i8, align 1
@.str.5 = private unnamed_addr constant [63 x i8] c"%d@%zu.%06zu:usb_uhci_packet_unlink_async token 0x%x, td 0x%x\0A\00", align 1
@.str.6 = private unnamed_addr constant [50 x i8] c"usb_uhci_packet_unlink_async token 0x%x, td 0x%x\0A\00", align 1
@qemu_loglevel = external global i32, align 4

; Function Attrs: nounwind sspstrong uwtable
define internal zeroext i1 @qemu_loglevel_mask(i32 noundef %mask) #0 {
entry:
  %mask.addr = alloca i32, align 4
  store i32 %mask, ptr %mask.addr, align 4
  %0 = load i32, ptr @qemu_loglevel, align 4
  %1 = load i32, ptr %mask.addr, align 4
  %and = and i32 %0, %1
  %cmp = icmp ne i32 %and, 0
  ret i1 %cmp
}

; Function Attrs: nounwind sspstrong uwtable
define internal void @_nocheck__trace_usb_uhci_packet_unlink_async(i32 noundef %token, i32 noundef %addr) #0 {
entry:
  %token.addr = alloca i32, align 4
  %addr.addr = alloca i32, align 4
  %_now = alloca %struct.timeval, align 8
  store i32 %token, ptr %token.addr, align 4
  store i32 %addr, ptr %addr.addr, align 4
  %0 = load i32, ptr @trace_events_enabled_count, align 4
  %tobool = icmp ne i32 %0, 0
  %lnot = xor i1 %tobool, true
  %lnot1 = xor i1 %lnot, true
  %lnot.ext = zext i1 %lnot1 to i32
  %conv = sext i32 %lnot.ext to i64
  %tobool2 = icmp ne i64 %conv, 0
  br i1 %tobool2, label %land.lhs.true, label %if.end11

land.lhs.true:                                    ; preds = %entry
  %1 = load i16, ptr @_TRACE_USB_UHCI_PACKET_UNLINK_ASYNC_DSTATE, align 2
  %conv3 = zext i16 %1 to i32
  %tobool4 = icmp ne i32 %conv3, 0
  br i1 %tobool4, label %land.lhs.true5, label %if.end11

land.lhs.true5:                                   ; preds = %land.lhs.true
  %call = call zeroext i1 @qemu_loglevel_mask(i32 noundef 32768)
  br i1 %call, label %if.then, label %if.end11

if.then:                                          ; preds = %land.lhs.true5
  %2 = load i8, ptr @message_with_timestamp, align 1
  %tobool7 = trunc i8 %2 to i1
  br i1 %tobool7, label %if.then8, label %if.else

if.then8:                                         ; preds = %if.then
  %call9 = call i32 @gettimeofday(ptr noundef %_now, ptr noundef null) #7
  %call10 = call i32 @qemu_get_thread_id()
  %tv_sec = getelementptr inbounds %struct.timeval, ptr %_now, i32 0, i32 0
  %3 = load i64, ptr %tv_sec, align 8
  %tv_usec = getelementptr inbounds %struct.timeval, ptr %_now, i32 0, i32 1
  %4 = load i64, ptr %tv_usec, align 8
  %5 = load i32, ptr %token.addr, align 4
  %6 = load i32, ptr %addr.addr, align 4
  call void (ptr, ...) @qemu_log(ptr noundef @.str.5, i32 noundef %call10, i64 noundef %3, i64 noundef %4, i32 noundef %5, i32 noundef %6)
  br label %if.end

if.else:                                          ; preds = %if.then
  %7 = load i32, ptr %token.addr, align 4
  %8 = load i32, ptr %addr.addr, align 4
  call void (ptr, ...) @qemu_log(ptr noundef @.str.6, i32 noundef %7, i32 noundef %8)
  br label %if.end

if.end:                                           ; preds = %if.else, %if.then8
  br label %if.end11

if.end11:                                         ; preds = %if.end, %land.lhs.true5, %land.lhs.true, %entry
  ret void
}

; Function Attrs: nounwind sspstrong uwtable
define internal void @trace_usb_uhci_packet_unlink_async(i32 noundef %token, i32 noundef %addr) #0 {
entry:
  %token.addr = alloca i32, align 4
  %addr.addr = alloca i32, align 4
  store i32 %token, ptr %token.addr, align 4
  store i32 %addr, ptr %addr.addr, align 4
  %0 = load i32, ptr %token.addr, align 4
  %1 = load i32, ptr %addr.addr, align 4
  call void @_nocheck__trace_usb_uhci_packet_unlink_async(i32 noundef %0, i32 noundef %1)
  ret void
}

; Function Attrs: nounwind sspstrong uwtable
define internal void @uhci_async_unlink(ptr noundef %async) #0 {
entry:
  %async.addr = alloca ptr, align 8
  %queue = alloca ptr, align 8
  store ptr %async, ptr %async.addr, align 8
  %0 = load ptr, ptr %async.addr, align 8
  %queue1 = getelementptr inbounds %struct.UHCIAsync, ptr %0, i32 0, i32 3
  %1 = load ptr, ptr %queue1, align 8
  store ptr %1, ptr %queue, align 8
  br label %do.body

do.body:                                          ; preds = %entry
  %2 = load ptr, ptr %async.addr, align 8
  %next = getelementptr inbounds %struct.UHCIAsync, ptr %2, i32 0, i32 4
  %3 = load ptr, ptr %next, align 8
  %cmp = icmp ne ptr %3, null
  br i1 %cmp, label %if.then, label %if.else

if.then:                                          ; preds = %do.body
  %4 = load ptr, ptr %async.addr, align 8
  %next2 = getelementptr inbounds %struct.UHCIAsync, ptr %4, i32 0, i32 4
  %tql_prev = getelementptr inbounds %struct.QTailQLink, ptr %next2, i32 0, i32 1
  %5 = load ptr, ptr %tql_prev, align 8
  %6 = load ptr, ptr %async.addr, align 8
  %next3 = getelementptr inbounds %struct.UHCIAsync, ptr %6, i32 0, i32 4
  %7 = load ptr, ptr %next3, align 8
  %next4 = getelementptr inbounds %struct.UHCIAsync, ptr %7, i32 0, i32 4
  %tql_prev5 = getelementptr inbounds %struct.QTailQLink, ptr %next4, i32 0, i32 1
  store ptr %5, ptr %tql_prev5, align 8
  br label %if.end

if.else:                                          ; preds = %do.body
  %8 = load ptr, ptr %async.addr, align 8
  %next6 = getelementptr inbounds %struct.UHCIAsync, ptr %8, i32 0, i32 4
  %tql_prev7 = getelementptr inbounds %struct.QTailQLink, ptr %next6, i32 0, i32 1
  %9 = load ptr, ptr %tql_prev7, align 8
  %10 = load ptr, ptr %queue, align 8
  %asyncs = getelementptr inbounds %struct.UHCIQueue, ptr %10, i32 0, i32 5
  %tql_prev8 = getelementptr inbounds %struct.QTailQLink, ptr %asyncs, i32 0, i32 1
  store ptr %9, ptr %tql_prev8, align 8
  br label %if.end

if.end:                                           ; preds = %if.else, %if.then
  %11 = load ptr, ptr %async.addr, align 8
  %next9 = getelementptr inbounds %struct.UHCIAsync, ptr %11, i32 0, i32 4
  %12 = load ptr, ptr %next9, align 8
  %13 = load ptr, ptr %async.addr, align 8
  %next10 = getelementptr inbounds %struct.UHCIAsync, ptr %13, i32 0, i32 4
  %tql_prev11 = getelementptr inbounds %struct.QTailQLink, ptr %next10, i32 0, i32 1
  %14 = load ptr, ptr %tql_prev11, align 8
  %tql_next = getelementptr inbounds %struct.QTailQLink, ptr %14, i32 0, i32 0
  store ptr %12, ptr %tql_next, align 8
  %15 = load ptr, ptr %async.addr, align 8
  %next12 = getelementptr inbounds %struct.UHCIAsync, ptr %15, i32 0, i32 4
  %tql_prev13 = getelementptr inbounds %struct.QTailQLink, ptr %next12, i32 0, i32 1
  store ptr null, ptr %tql_prev13, align 8
  %16 = load ptr, ptr %async.addr, align 8
  %next14 = getelementptr inbounds %struct.UHCIAsync, ptr %16, i32 0, i32 4
  %tql_next15 = getelementptr inbounds %struct.QTailQLink, ptr %next14, i32 0, i32 0
  store ptr null, ptr %tql_next15, align 8
  %17 = load ptr, ptr %async.addr, align 8
  %next16 = getelementptr inbounds %struct.UHCIAsync, ptr %17, i32 0, i32 4
  store ptr null, ptr %next16, align 8
  br label %do.end

do.end:                                           ; preds = %if.end
  %18 = load ptr, ptr %async.addr, align 8
  %queue17 = getelementptr inbounds %struct.UHCIAsync, ptr %18, i32 0, i32 3
  %19 = load ptr, ptr %queue17, align 8
  %token = getelementptr inbounds %struct.UHCIQueue, ptr %19, i32 0, i32 1
  %20 = load i32, ptr %token, align 4
  %21 = load ptr, ptr %async.addr, align 8
  %td_addr = getelementptr inbounds %struct.UHCIAsync, ptr %21, i32 0, i32 5
  %22 = load i32, ptr %td_addr, align 8
  call void @trace_usb_uhci_packet_unlink_async(i32 noundef %20, i32 noundef %22)
  ret void
}