; Function Attrs: nounwind sspstrong uwtable
define internal fastcc void @uhci_async_unlink(ptr noundef captures(none) %async) unnamed_addr #0 {
entry:
  %_now.i.i = alloca %struct.timeval, align 8
  %queue1 = getelementptr inbounds nuw i8, ptr %async, i64 208
  %next = getelementptr inbounds nuw i8, ptr %async, i64 216
  %0 = load ptr, ptr %next, align 8
  %cmp.not = icmp eq ptr %0, null
  br i1 %cmp.not, label %if.else, label %if.then

if.then:                                          ; preds = %entry
  %tql_prev = getelementptr inbounds nuw i8, ptr %async, i64 224
  %1 = load ptr, ptr %tql_prev, align 8
  %tql_prev5 = getelementptr inbounds nuw i8, ptr %0, i64 224
  store ptr %1, ptr %tql_prev5, align 8
  br label %if.end

if.else:                                          ; preds = %entry
  %2 = load ptr, ptr %queue1, align 8
  %tql_prev7 = getelementptr inbounds nuw i8, ptr %async, i64 224
  %3 = load ptr, ptr %tql_prev7, align 8
  %tql_prev8 = getelementptr inbounds nuw i8, ptr %2, i64 48
  store ptr %3, ptr %tql_prev8, align 8
  br label %if.end

if.end:                                           ; preds = %if.else, %if.then
  %4 = phi ptr [ %3, %if.else ], [ %1, %if.then ]
  %5 = load ptr, ptr %next, align 8
  store ptr %5, ptr %4, align 8
  tail call void @llvm.memset.p0.i64(ptr noundef nonnull align 8 dereferenceable(16) %next, i8 0, i64 16, i1 false)
  %6 = load ptr, ptr %queue1, align 8
  %token = getelementptr inbounds nuw i8, ptr %6, i64 4
  %7 = load i32, ptr %token, align 4
  %td_addr = getelementptr inbounds nuw i8, ptr %async, i64 232
  %8 = load i32, ptr %td_addr, align 8
  call void @llvm.lifetime.start.p0(i64 16, ptr nonnull %_now.i.i)
  %9 = load i32, ptr @trace_events_enabled_count, align 4
  %tobool.i.i = icmp ne i32 %9, 0
  %10 = load i16, ptr @_TRACE_USB_UHCI_PACKET_UNLINK_ASYNC_DSTATE, align 2
  %tobool4.i.i = icmp ne i16 %10, 0
  %or.cond.i.i = select i1 %tobool.i.i, i1 %tobool4.i.i, i1 false
  br i1 %or.cond.i.i, label %land.lhs.true5.i.i, label %trace_usb_uhci_packet_unlink_async.exit

land.lhs.true5.i.i:                               ; preds = %if.end
  %11 = load i32, ptr @qemu_loglevel, align 4
  %and.i.i.i = and i32 %11, 32768
  %cmp.i.not.i.i = icmp eq i32 %and.i.i.i, 0
  br i1 %cmp.i.not.i.i, label %trace_usb_uhci_packet_unlink_async.exit, label %if.then.i.i

if.then.i.i:                                      ; preds = %land.lhs.true5.i.i
  %12 = load i8, ptr @message_with_timestamp, align 1
  %tobool7.i.i = trunc i8 %12 to i1
  br i1 %tobool7.i.i, label %if.then8.i.i, label %if.else.i.i

if.then8.i.i:                                     ; preds = %if.then.i.i
  %call9.i.i = call i32 @gettimeofday(ptr noundef nonnull %_now.i.i, ptr noundef null) #11
  %call10.i.i = tail call i32 @qemu_get_thread_id() #11
  %13 = load i64, ptr %_now.i.i, align 8
  %tv_usec.i.i = getelementptr inbounds nuw i8, ptr %_now.i.i, i64 8
  %14 = load i64, ptr %tv_usec.i.i, align 8
  tail call void (ptr, ...) @qemu_log(ptr noundef nonnull @.str.5, i32 noundef %call10.i.i, i64 noundef %13, i64 noundef %14, i32 noundef %7, i32 noundef %8) #11
  br label %trace_usb_uhci_packet_unlink_async.exit

if.else.i.i:                                      ; preds = %if.then.i.i
  tail call void (ptr, ...) @qemu_log(ptr noundef nonnull @.str.6, i32 noundef %7, i32 noundef %8) #11
  br label %trace_usb_uhci_packet_unlink_async.exit

trace_usb_uhci_packet_unlink_async.exit:          ; preds = %if.end, %land.lhs.true5.i.i, %if.then8.i.i, %if.else.i.i
  call void @llvm.lifetime.end.p0(i64 16, ptr nonnull %_now.i.i)
  ret void
}